target datalayout = "e-m:e-p270:32:32-p271:32:32-p272:64:64-i64:64-i128:128-f80:128-n8:16:32:64-S128"
target triple = "x86_64-pc-linux-gnu"

%"class.google::protobuf::internal::LogMessage" = type { i32, ptr, i32, %"class.std::__cxx11::basic_string" }
%"class.std::__cxx11::basic_string" = type { %"struct.std::__cxx11::basic_string<char>::_Alloc_hider", i64, %union.anon }
%"struct.std::__cxx11::basic_string<char>::_Alloc_hider" = type { ptr }
%union.anon = type { i64, [8 x i8] }
%"class.google::protobuf::internal::LogFinisher" = type { i8 }
%"class.google::protobuf::io::ArrayOutputStream" = type { %"class.google::protobuf::io::ZeroCopyOutputStream", ptr, i32, i32, i32, i32 }
%"class.google::protobuf::io::ZeroCopyOutputStream" = type { ptr }

@.str = private unnamed_addr constant [56 x i8] c"third_party/protobuf-lite/zero_copy_stream_impl_lite.cc\00", align 1
@.str.1 = private unnamed_addr constant [44 x i8] c"CHECK failed: (last_returned_size_) > (0): \00", align 1
@.str.2 = private unnamed_addr constant [55 x i8] c"BackUp() can only be called after a successful Next().\00", align 1
@.str.3 = private unnamed_addr constant [49 x i8] c"CHECK failed: (count) <= (last_returned_size_): \00", align 1
@.str.4 = private unnamed_addr constant [31 x i8] c"CHECK failed: (count) >= (0): \00", align 1

; Function Attrs: mustprogress uwtable
define void @_ZN6google8protobuf2io17ArrayOutputStream6BackUpEi(ptr noundef nonnull align 8 dereferenceable(32) %0, i32 noundef %1) unnamed_addr #4 align 2 personality ptr @__gxx_personality_v0 {
  %3 = alloca ptr, align 8
  %4 = alloca i32, align 4
  %5 = alloca %"class.google::protobuf::internal::LogMessage", align 8
  %6 = alloca i1, align 1
  %7 = alloca ptr, align 8
  %8 = alloca i32, align 4
  %9 = alloca %"class.google::protobuf::internal::LogFinisher", align 1
  %10 = alloca %"class.google::protobuf::internal::LogMessage", align 8
  %11 = alloca i1, align 1
  %12 = alloca %"class.google::protobuf::internal::LogFinisher", align 1
  %13 = alloca %"class.google::protobuf::internal::LogMessage", align 8
  %14 = alloca i1, align 1
  %15 = alloca %"class.google::protobuf::internal::LogFinisher", align 1
  store ptr %0, ptr %3, align 8
  store i32 %1, ptr %4, align 4
  %16 = load ptr, ptr %3, align 8
  %17 = getelementptr inbounds %"class.google::protobuf::io::ArrayOutputStream", ptr %16, i32 0, i32 5
  %18 = load i32, ptr %17, align 4
  %19 = icmp sgt i32 %18, 0
  store i1 false, ptr %6, align 1
  br i1 %19, label %20, label %21

20:                                               ; preds = %2
  br label %27

21:                                               ; preds = %2
  call void @_ZN6google8protobuf8internal10LogMessageC1ENS0_8LogLevelEPKci(ptr noundef nonnull align 8 dereferenceable(56) %5, i32 noundef 3, ptr noundef @.str, i32 noundef 127)
  store i1 true, ptr %6, align 1
  %22 = invoke noundef nonnull align 8 dereferenceable(56) ptr @_ZN6google8protobuf8internal10LogMessagelsEPKc(ptr noundef nonnull align 8 dereferenceable(56) %5, ptr noundef @.str.1)
          to label %23 unwind label %60

23:                                               ; preds = %21
  %24 = invoke noundef nonnull align 8 dereferenceable(56) ptr @_ZN6google8protobuf8internal10LogMessagelsEPKc(ptr noundef nonnull align 8 dereferenceable(56) %22, ptr noundef @.str.2)
          to label %25 unwind label %60

25:                                               ; preds = %23
  invoke void @_ZN6google8protobuf8internal11LogFinisheraSERNS1_10LogMessageE(ptr noundef nonnull align 1 dereferenceable(1) %9, ptr noundef nonnull align 8 dereferenceable(56) %24)
          to label %26 unwind label %60

26:                                               ; preds = %25
  br label %27

27:                                               ; preds = %26, %20
  %28 = load i1, ptr %6, align 1
  br i1 %28, label %29, label %30

29:                                               ; preds = %27
  call void @_ZN6google8protobuf8internal10LogMessageD1Ev(ptr noundef nonnull align 8 dereferenceable(56) %5) #3
  br label %30

30:                                               ; preds = %29, %27
  %31 = load i32, ptr %4, align 4
  %32 = getelementptr inbounds %"class.google::protobuf::io::ArrayOutputStream", ptr %16, i32 0, i32 5
  %33 = load i32, ptr %32, align 4
  %34 = icmp sle i32 %31, %33
  store i1 false, ptr %11, align 1
  br i1 %34, label %35, label %36

35:                                               ; preds = %30
  br label %40

36:                                               ; preds = %30
  call void @_ZN6google8protobuf8internal10LogMessageC1ENS0_8LogLevelEPKci(ptr noundef nonnull align 8 dereferenceable(56) %10, i32 noundef 3, ptr noundef @.str, i32 noundef 129)
  store i1 true, ptr %11, align 1
  %37 = invoke noundef nonnull align 8 dereferenceable(56) ptr @_ZN6google8protobuf8internal10LogMessagelsEPKc(ptr noundef nonnull align 8 dereferenceable(56) %10, ptr noundef @.str.3)
          to label %38 unwind label %67

38:                                               ; preds = %36
  invoke void @_ZN6google8protobuf8internal11LogFinisheraSERNS1_10LogMessageE(ptr noundef nonnull align 1 dereferenceable(1) %12, ptr noundef nonnull align 8 dereferenceable(56) %37)
          to label %39 unwind label %67

39:                                               ; preds = %38
  br label %40

40:                                               ; preds = %39, %35
  %41 = load i1, ptr %11, align 1
  br i1 %41, label %42, label %43

42:                                               ; preds = %40
  call void @_ZN6google8protobuf8internal10LogMessageD1Ev(ptr noundef nonnull align 8 dereferenceable(56) %10) #3
  br label %43

43:                                               ; preds = %42, %40
  %44 = load i32, ptr %4, align 4
  %45 = icmp sge i32 %44, 0
  store i1 false, ptr %14, align 1
  br i1 %45, label %46, label %47

46:                                               ; preds = %43
  br label %51

47:                                               ; preds = %43
  call void @_ZN6google8protobuf8internal10LogMessageC1ENS0_8LogLevelEPKci(ptr noundef nonnull align 8 dereferenceable(56) %13, i32 noundef 3, ptr noundef @.str, i32 noundef 130)
  store i1 true, ptr %14, align 1
  %48 = invoke noundef nonnull align 8 dereferenceable(56) ptr @_ZN6google8protobuf8internal10LogMessagelsEPKc(ptr noundef nonnull align 8 dereferenceable(56) %13, ptr noundef @.str.4)
          to label %49 unwind label %74

49:                                               ; preds = %47
  invoke void @_ZN6google8protobuf8internal11LogFinisheraSERNS1_10LogMessageE(ptr noundef nonnull align 1 dereferenceable(1) %15, ptr noundef nonnull align 8 dereferenceable(56) %48)
          to label %50 unwind label %74

50:                                               ; preds = %49
  br label %51

51:                                               ; preds = %50, %46
  %52 = load i1, ptr %14, align 1
  br i1 %52, label %53, label %54

53:                                               ; preds = %51
  call void @_ZN6google8protobuf8internal10LogMessageD1Ev(ptr noundef nonnull align 8 dereferenceable(56) %13) #3
  br label %54

54:                                               ; preds = %53, %51
  %55 = load i32, ptr %4, align 4
  %56 = getelementptr inbounds %"class.google::protobuf::io::ArrayOutputStream", ptr %16, i32 0, i32 4
  %57 = load i32, ptr %56, align 8
  %58 = sub nsw i32 %57, %55
  store i32 %58, ptr %56, align 8
  %59 = getelementptr inbounds %"class.google::protobuf::io::ArrayOutputStream", ptr %16, i32 0, i32 5
  store i32 0, ptr %59, align 4
  ret void

60:                                               ; preds = %25, %23, %21
  %61 = landingpad { ptr, i32 }
          cleanup
  %62 = extractvalue { ptr, i32 } %61, 0
  store ptr %62, ptr %7, align 8
  %63 = extractvalue { ptr, i32 } %61, 1
  store i32 %63, ptr %8, align 4
  %64 = load i1, ptr %6, align 1
  br i1 %64, label %65, label %66

65:                                               ; preds = %60
  call void @_ZN6google8protobuf8internal10LogMessageD1Ev(ptr noundef nonnull align 8 dereferenceable(56) %5) #3
  br label %66

66:                                               ; preds = %65, %60
  br label %81

67:                                               ; preds = %38, %36
  %68 = landingpad { ptr, i32 }
          cleanup
  %69 = extractvalue { ptr, i32 } %68, 0
  store ptr %69, ptr %7, align 8
  %70 = extractvalue { ptr, i32 } %68, 1
  store i32 %70, ptr %8, align 4
  %71 = load i1, ptr %11, align 1
  br i1 %71, label %72, label %73

72:                                               ; preds = %67
  call void @_ZN6google8protobuf8internal10LogMessageD1Ev(ptr noundef nonnull align 8 dereferenceable(56) %10) #3
  br label %73

73:                                               ; preds = %72, %67
  br label %81

74:                                               ; preds = %49, %47
  %75 = landingpad { ptr, i32 }
          cleanup
  %76 = extractvalue { ptr, i32 } %75, 0
  store ptr %76, ptr %7, align 8
  %77 = extractvalue { ptr, i32 } %75, 1
  store i32 %77, ptr %8, align 4
  %78 = load i1, ptr %14, align 1
  br i1 %78, label %79, label %80

79:                                               ; preds = %74
  call void @_ZN6google8protobuf8internal10LogMessageD1Ev(ptr noundef nonnull align 8 dereferenceable(56) %13) #3
  br label %80

80:                                               ; preds = %79, %74
  br label %81

81:                                               ; preds = %80, %73, %66
  %82 = load ptr, ptr %7, align 8
  %83 = load i32, ptr %8, align 4
  %84 = insertvalue { ptr, i32 } poison, ptr %82, 0
  %85 = insertvalue { ptr, i32 } %84, i32 %83, 1
  resume { ptr, i32 } %85
}